target datalayout = "e-m:e-p270:32:32-p271:32:32-p272:64:64-i64:64-i128:128-f80:128-n8:16:32:64-S128"
target triple = "x86_64-pc-linux-gnu"

%struct._typeobject = type { %struct.PyVarObject, ptr, i64, i64, ptr, i64, ptr, ptr, ptr, ptr, ptr, ptr, ptr, ptr, ptr, ptr, ptr, ptr, ptr, i64, ptr, ptr, ptr, ptr, i64, ptr, ptr, ptr, ptr, ptr, ptr, ptr, ptr, ptr, i64, ptr, ptr, ptr, ptr, ptr, ptr, ptr, ptr, ptr, ptr, ptr, i32, ptr, ptr, i8, i16 }
%struct.PyVarObject = type { %struct._object, i64 }
%struct._object = type { %union.anon, ptr }
%union.anon = type { i64 }
%struct.anon = type { i32, i32 }
%struct.PyMutex = type { i8 }
%struct._xid_lookup_state = type { %struct._PyXIData_registry_t }
%struct._PyXIData_registry_t = type { i32, i32, %struct.PyMutex, ptr }
%struct.llist_node = type { ptr, ptr }
%struct.PyWideStringList = type { i64, ptr }
%struct._pending_calls = type { ptr, %struct.PyMutex, i32, i32, i32, [300 x %struct._pending_call], i32, i32 }
%struct._pending_call = type { ptr, ptr, i32 }
%struct._stoptheworld_state = type { %struct.PyMutex, i8, i8, i8, %struct.PyEvent, i64, ptr }
%struct.PyEvent = type { i8 }
%struct.PyGC_Head = type { i64, i64 }
%struct._is = type { %struct._ceval_state, ptr, i64, i64, i32, i64, i32, i32, i32, i64, %struct.pythreads, ptr, ptr, i64, %struct._gc_runtime_state, ptr, ptr, %struct._import_state, %struct._gil_runtime_state, %struct.codecs_state, %struct.PyConfig, i64, ptr, ptr, ptr, ptr, [8 x ptr], i8, i64, [255 x ptr], %struct._PyXI_state_t, ptr, ptr, ptr, %struct._warnings_runtime_state, %struct.atexit_state, %struct._stoptheworld_state, %struct._qsbr_shared, ptr, ptr, [8 x ptr], [8 x ptr], [8 x ptr], i8, i8, %struct._py_object_state, %struct._Py_unicode_state, %struct._Py_long_state, %struct._dtoa_state, %struct._py_func_state, %struct._py_code_state, %struct._Py_dict_state, %struct._Py_exc_state, %struct._Py_mem_interp_free_queue, %struct.ast_state, %struct.types_state, %struct.callable_cache, i8, ptr, i64, %struct._rare_events, ptr, %struct._Py_GlobalMonitors, i8, i8, i64, i64, [8 x [19 x ptr]], [8 x ptr], [8 x i64], %struct._Py_interp_cached_objects, %struct._Py_interp_static_objects, i64, %struct._PyThreadStateImpl }
%struct._ceval_state = type { i64, i32, ptr, i32, %struct._pending_calls }
%struct.pythreads = type { i64, ptr, ptr, ptr, i64, i64 }
%struct._gc_runtime_state = type { ptr, i32, i32, i32, %struct.gc_generation, [2 x %struct.gc_generation], %struct.gc_generation, [3 x %struct.gc_generation_stats], i32, ptr, ptr, i64, i64, i32, i32 }
%struct.gc_generation = type { %struct.PyGC_Head, i32, i32 }
%struct.gc_generation_stats = type { i64, i64, i64 }
%struct._import_state = type { ptr, ptr, ptr, i32, i32, i32, ptr, %struct._PyRecursiveMutex, %struct.anon.2 }
%struct._PyRecursiveMutex = type { %struct.PyMutex, i64, i64 }
%struct.anon.2 = type { i32, i64, i32 }
%struct._gil_runtime_state = type { i64, ptr, i32, i64, %union.pthread_cond_t, %union.pthread_mutex_t, %union.pthread_cond_t, %union.pthread_mutex_t }
%union.pthread_cond_t = type { %struct.__pthread_cond_s }
%struct.__pthread_cond_s = type { %union.__atomic_wide_counter, %union.__atomic_wide_counter, [2 x i32], [2 x i32], i32, i32, [2 x i32] }
%union.__atomic_wide_counter = type { i64 }
%union.pthread_mutex_t = type { %struct.__pthread_mutex_s }
%struct.__pthread_mutex_s = type { i32, i32, i32, i32, i32, i16, i16, %struct.__pthread_internal_list }
%struct.__pthread_internal_list = type { ptr, ptr }
%struct.codecs_state = type { ptr, ptr, ptr, i32 }
%struct.PyConfig = type { i32, i32, i32, i32, i32, i32, i64, i32, i32, i32, i32, i32, i32, i32, ptr, i32, ptr, ptr, ptr, i32, %struct.PyWideStringList, %struct.PyWideStringList, %struct.PyWideStringList, %struct.PyWideStringList, i32, i32, i32, i32, i32, i32, i32, i32, i32, i32, i32, i32, i32, ptr, ptr, ptr, i32, i32, i32, i32, i32, ptr, ptr, ptr, ptr, i32, %struct.PyWideStringList, ptr, ptr, ptr, ptr, ptr, ptr, ptr, i32, ptr, ptr, ptr, ptr, i32, i32, i32 }
%struct._PyXI_state_t = type { %struct._xid_lookup_state, %struct.xi_exceptions }
%struct.xi_exceptions = type { ptr, ptr, ptr }
%struct._warnings_runtime_state = type { ptr, ptr, ptr, %struct._PyRecursiveMutex, i64 }
%struct.atexit_state = type { ptr, ptr }
%struct._qsbr_shared = type { i64, i64, ptr, i64, %struct.PyMutex, ptr }
%struct._py_object_state = type { %struct._Py_freelists, i32 }
%struct._Py_freelists = type { %struct._Py_freelist, %struct._Py_freelist, [20 x %struct._Py_freelist], %struct._Py_freelist, %struct._Py_freelist, %struct._Py_freelist, %struct._Py_freelist, %struct._Py_freelist, %struct._Py_freelist, %struct._Py_freelist, %struct._Py_freelist, %struct._Py_freelist, %struct._Py_freelist, %struct._Py_freelist, %struct._Py_freelist, %struct._Py_freelist }
%struct._Py_freelist = type { ptr, i64 }
%struct._Py_unicode_state = type { %struct._Py_unicode_fs_codec, ptr, %struct._Py_unicode_ids }
%struct._Py_unicode_fs_codec = type { ptr, i32, ptr, i32 }
%struct._Py_unicode_ids = type { i64, ptr }
%struct._Py_long_state = type { i32 }
%struct._dtoa_state = type { [8 x ptr], [8 x ptr], [288 x double], ptr }
%struct._py_func_state = type { i32, [4096 x %struct._func_version_cache_item] }
%struct._func_version_cache_item = type { ptr, ptr }
%struct._py_code_state = type { %struct.PyMutex, ptr }
%struct._Py_dict_state = type { i32, [8 x ptr] }
%struct._Py_exc_state = type { ptr, ptr, i32, ptr }
%struct._Py_mem_interp_free_queue = type { i32, %struct.PyMutex, %struct.llist_node }
%struct.ast_state = type { %struct._PyOnceFlag, i32, ptr, ptr, ptr, ptr, ptr, ptr, ptr, ptr, ptr, ptr, ptr, ptr, ptr, ptr, ptr, ptr, ptr, ptr, ptr, ptr, ptr, ptr, ptr, ptr, ptr, ptr, ptr, ptr, ptr, ptr, ptr, ptr, ptr, ptr, ptr, ptr, ptr, ptr, ptr, ptr, ptr, ptr, ptr, ptr, ptr, ptr, ptr, ptr, ptr, ptr, ptr, ptr, ptr, ptr, ptr, ptr, ptr, ptr, ptr, ptr, ptr, ptr, ptr, ptr, ptr, ptr, ptr, ptr, ptr, ptr, ptr, ptr, ptr, ptr, ptr, ptr, ptr, ptr, ptr, ptr, ptr, ptr, ptr, ptr, ptr, ptr, ptr, ptr, ptr, ptr, ptr, ptr, ptr, ptr, ptr, ptr, ptr, ptr, ptr, ptr, ptr, ptr, ptr, ptr, ptr, ptr, ptr, ptr, ptr, ptr, ptr, ptr, ptr, ptr, ptr, ptr, ptr, ptr, ptr, ptr, ptr, ptr, ptr, ptr, ptr, ptr, ptr, ptr, ptr, ptr, ptr, ptr, ptr, ptr, ptr, ptr, ptr, ptr, ptr, ptr, ptr, ptr, ptr, ptr, ptr, ptr, ptr, ptr, ptr, ptr, ptr, ptr, ptr, ptr, ptr, ptr, ptr, ptr, ptr, ptr, ptr, ptr, ptr, ptr, ptr, ptr, ptr, ptr, ptr, ptr, ptr, ptr, ptr, ptr, ptr, ptr, ptr, ptr, ptr, ptr, ptr, ptr, ptr, ptr, ptr, ptr, ptr, ptr, ptr, ptr, ptr, ptr, ptr, ptr, ptr, ptr, ptr, ptr, ptr, ptr, ptr, ptr, ptr, ptr, ptr, ptr, ptr, ptr, ptr, ptr, ptr, ptr, ptr, ptr, ptr, ptr, ptr, ptr, ptr, ptr, ptr, ptr, ptr, ptr, ptr, ptr, ptr, ptr, ptr, ptr, ptr, ptr, ptr, ptr, ptr, ptr, ptr, ptr, ptr, ptr, ptr, ptr, ptr }
%struct._PyOnceFlag = type { i8 }
%struct.types_state = type { i32, %struct.type_cache, %struct.anon.4, %struct.anon.5, %struct.PyMutex, [4096 x ptr] }
%struct.type_cache = type { [4096 x %struct.type_cache_entry] }
%struct.type_cache_entry = type { i32, ptr, ptr }
%struct.anon.4 = type { i64, [200 x %struct.managed_static_type_state] }
%struct.managed_static_type_state = type { ptr, i32, i32, i32, ptr, ptr, ptr }
%struct.anon.5 = type { i64, i64, [10 x %struct.managed_static_type_state] }
%struct.callable_cache = type { ptr, ptr, ptr, ptr }
%struct._rare_events = type { i8, i8, i8, i8, i8 }
%struct._Py_GlobalMonitors = type { [16 x i8] }
%struct._Py_interp_cached_objects = type { ptr, ptr, ptr, [10 x ptr], ptr, ptr, ptr, ptr, ptr, ptr, ptr }
%struct._Py_interp_static_objects = type { %struct.anon.6 }
%struct.anon.6 = type { i32, %struct.PyGC_Head, %struct.PyHamtObject, %struct.PyBaseExceptionObject }
%struct.PyHamtObject = type { %struct._object, ptr, ptr, i64 }
%struct.PyBaseExceptionObject = type { %struct._object, ptr, ptr, ptr, ptr, ptr, ptr, i8 }
%struct._PyThreadStateImpl = type { %struct._ts, ptr, ptr, ptr, %struct.llist_node }
%struct._ts = type { ptr, ptr, ptr, i64, %struct.anon.1, i32, i32, i32, i32, i32, i32, i32, i32, ptr, ptr, ptr, ptr, ptr, ptr, ptr, ptr, i32, ptr, i64, i64, ptr, i64, i32, ptr, ptr, ptr, i64, i64, ptr, ptr, ptr, %struct._err_stackitem, ptr, i64, ptr, ptr }
%struct.anon.1 = type { i32 }
%struct._err_stackitem = type { ptr, ptr }

@_PyInstrumentation_DISABLE = hidden global { { %struct.anon }, ptr } { { %struct.anon } { %struct.anon { i32 -1073741824, i32 128 } }, ptr @PyBaseObject_Type }, align 8

; Function Attrs: inlinehint nounwind uwtable
define internal i32 @PyType_HasFeature(ptr noundef %0, i64 noundef %1) #2 {
  %3 = alloca ptr, align 8
  %4 = alloca i64, align 8
  %5 = alloca i64, align 8
  store ptr %0, ptr %3, align 8, !tbaa !196
  store i64 %1, ptr %4, align 8, !tbaa !43
  call void @llvm.lifetime.start.p0(i64 8, ptr %5) #8
  %6 = load ptr, ptr %3, align 8, !tbaa !196
  %7 = getelementptr inbounds nuw %struct._typeobject, ptr %6, i32 0, i32 19
  %8 = load i64, ptr %7, align 8, !tbaa !202
  store i64 %8, ptr %5, align 8, !tbaa !43
  %9 = load i64, ptr %5, align 8, !tbaa !43
  %10 = load i64, ptr %4, align 8, !tbaa !43
  %11 = and i64 %9, %10
  %12 = icmp ne i64 %11, 0
  %13 = zext i1 %12 to i32
  call void @llvm.lifetime.end.p0(i64 8, ptr %5) #8
  ret i32 %13
}

; Function Attrs: inlinehint nounwind uwtable
define internal ptr @_Py_TYPE(ptr noundef %0) #2 {
  %2 = alloca ptr, align 8
  store ptr %0, ptr %2, align 8, !tbaa !53
  %3 = load ptr, ptr %2, align 8, !tbaa !53
  %4 = getelementptr inbounds nuw %struct._object, ptr %3, i32 0, i32 1
  %5 = load ptr, ptr %4, align 8, !tbaa !190
  ret ptr %5
}

; Function Attrs: alwaysinline nounwind uwtable
define internal i32 @_Py_IsImmortal(ptr noundef %0) #5 {
  %2 = alloca ptr, align 8
  store ptr %0, ptr %2, align 8, !tbaa !53
  %3 = load ptr, ptr %2, align 8, !tbaa !53
  %4 = getelementptr inbounds nuw %struct._object, ptr %3, i32 0, i32 0
  %5 = getelementptr inbounds nuw %struct.anon, ptr %4, i32 0, i32 0
  %6 = load i32, ptr %5, align 8, !tbaa !11
  %7 = icmp slt i32 %6, 0
  %8 = zext i1 %7 to i32
  ret i32 %8
}

; Function Attrs: inlinehint nounwind uwtable
define internal i64 @_PyVectorcall_NARGS(i64 noundef %0) #2 {
  %2 = alloca i64, align 8
  store i64 %0, ptr %2, align 8, !tbaa !43
  %3 = load i64, ptr %2, align 8, !tbaa !43
  %4 = and i64 %3, 9223372036854775807
  ret i64 %4
}

; Function Attrs: inlinehint nounwind uwtable
define internal ptr @_PyVectorcall_FunctionInline(ptr noundef %0) #2 {
  %2 = alloca ptr, align 8
  %3 = alloca ptr, align 8
  %4 = alloca ptr, align 8
  %5 = alloca i32, align 4
  %6 = alloca i64, align 8
  %7 = alloca ptr, align 8
  store ptr %0, ptr %3, align 8, !tbaa !53
  call void @llvm.lifetime.start.p0(i64 8, ptr %4) #8
  %8 = load ptr, ptr %3, align 8, !tbaa !53
  %9 = call ptr @_Py_TYPE(ptr noundef %8)
  store ptr %9, ptr %4, align 8, !tbaa !196
  %10 = load ptr, ptr %4, align 8, !tbaa !196
  %11 = call i32 @PyType_HasFeature(ptr noundef %10, i64 noundef 2048)
  %12 = icmp ne i32 %11, 0
  br i1 %12, label %14, label %13

13:                                               ; preds = %1
  store ptr null, ptr %2, align 8
  store i32 1, ptr %5, align 4
  br label %22

14:                                               ; preds = %1
  call void @llvm.lifetime.start.p0(i64 8, ptr %6) #8
  %15 = load ptr, ptr %4, align 8, !tbaa !196
  %16 = getelementptr inbounds nuw %struct._typeobject, ptr %15, i32 0, i32 5
  %17 = load i64, ptr %16, align 8, !tbaa !197
  store i64 %17, ptr %6, align 8, !tbaa !43
  call void @llvm.lifetime.start.p0(i64 8, ptr %7) #8
  %18 = load ptr, ptr %3, align 8, !tbaa !53
  %19 = load i64, ptr %6, align 8, !tbaa !43
  %20 = getelementptr i8, ptr %18, i64 %19
  call void @llvm.memcpy.p0.p0.i64(ptr align 8 %7, ptr align 1 %20, i64 8, i1 false)
  %21 = load ptr, ptr %7, align 8, !tbaa !12
  store ptr %21, ptr %2, align 8
  store i32 1, ptr %5, align 4
  call void @llvm.lifetime.end.p0(i64 8, ptr %7) #8
  call void @llvm.lifetime.end.p0(i64 8, ptr %6) #8
  br label %22

22:                                               ; preds = %14, %13
  call void @llvm.lifetime.end.p0(i64 8, ptr %4) #8
  %23 = load ptr, ptr %2, align 8
  ret ptr %23
}

; Function Attrs: alwaysinline nounwind uwtable
define internal void @Py_DECREF(ptr noundef %0) #5 {
  %2 = alloca ptr, align 8
  store ptr %0, ptr %2, align 8, !tbaa !53
  %3 = load ptr, ptr %2, align 8, !tbaa !53
  %4 = call i32 @_Py_IsImmortal(ptr noundef %3)
  %5 = icmp ne i32 %4, 0
  br i1 %5, label %6, label %7

6:                                                ; preds = %1
  br label %16

7:                                                ; preds = %1
  %8 = load ptr, ptr %2, align 8, !tbaa !53
  %9 = getelementptr inbounds nuw %struct._object, ptr %8, i32 0, i32 0
  %10 = getelementptr inbounds nuw %struct.anon, ptr %9, i32 0, i32 0
  %11 = load i32, ptr %10, align 8, !tbaa !11
  %12 = add i32 %11, -1
  store i32 %12, ptr %10, align 8, !tbaa !11
  %13 = icmp eq i32 %12, 0
  br i1 %13, label %14, label %16

14:                                               ; preds = %7
  %15 = load ptr, ptr %2, align 8, !tbaa !53
  call void @_Py_Dealloc(ptr noundef %15)
  br label %16

16:                                               ; preds = %6, %14, %7
  ret void
}

; Function Attrs: inlinehint nounwind uwtable
define internal ptr @_PyObject_VectorcallTstate(ptr noundef %0, ptr noundef %1, ptr noundef %2, i64 noundef %3, ptr noundef %4) #2 {
  %6 = alloca ptr, align 8
  %7 = alloca ptr, align 8
  %8 = alloca ptr, align 8
  %9 = alloca ptr, align 8
  %10 = alloca i64, align 8
  %11 = alloca ptr, align 8
  %12 = alloca ptr, align 8
  %13 = alloca ptr, align 8
  %14 = alloca i64, align 8
  %15 = alloca i32, align 4
  store ptr %0, ptr %7, align 8, !tbaa !39
  store ptr %1, ptr %8, align 8, !tbaa !53
  store ptr %2, ptr %9, align 8, !tbaa !44
  store i64 %3, ptr %10, align 8, !tbaa !43
  store ptr %4, ptr %11, align 8, !tbaa !53
  call void @llvm.lifetime.start.p0(i64 8, ptr %12) #8
  call void @llvm.lifetime.start.p0(i64 8, ptr %13) #8
  %16 = load ptr, ptr %8, align 8, !tbaa !53
  %17 = call ptr @_PyVectorcall_FunctionInline(ptr noundef %16)
  store ptr %17, ptr %12, align 8, !tbaa !12
  %18 = load ptr, ptr %12, align 8, !tbaa !12
  %19 = icmp eq ptr %18, null
  br i1 %19, label %20, label %29

20:                                               ; preds = %5
  call void @llvm.lifetime.start.p0(i64 8, ptr %14) #8
  %21 = load i64, ptr %10, align 8, !tbaa !43
  %22 = call i64 @_PyVectorcall_NARGS(i64 noundef %21)
  store i64 %22, ptr %14, align 8, !tbaa !43
  %23 = load ptr, ptr %7, align 8, !tbaa !39
  %24 = load ptr, ptr %8, align 8, !tbaa !53
  %25 = load ptr, ptr %9, align 8, !tbaa !44
  %26 = load i64, ptr %14, align 8, !tbaa !43
  %27 = load ptr, ptr %11, align 8, !tbaa !53
  %28 = call ptr @_PyObject_MakeTpCall(ptr noundef %23, ptr noundef %24, ptr noundef %25, i64 noundef %26, ptr noundef %27)
  store ptr %28, ptr %6, align 8
  store i32 1, ptr %15, align 4
  call void @llvm.lifetime.end.p0(i64 8, ptr %14) #8
  br label %40

29:                                               ; preds = %5
  %30 = load ptr, ptr %12, align 8, !tbaa !12
  %31 = load ptr, ptr %8, align 8, !tbaa !53
  %32 = load ptr, ptr %9, align 8, !tbaa !44
  %33 = load i64, ptr %10, align 8, !tbaa !43
  %34 = load ptr, ptr %11, align 8, !tbaa !53
  %35 = call ptr %30(ptr noundef %31, ptr noundef %32, i64 noundef %33, ptr noundef %34)
  store ptr %35, ptr %13, align 8, !tbaa !53
  %36 = load ptr, ptr %7, align 8, !tbaa !39
  %37 = load ptr, ptr %8, align 8, !tbaa !53
  %38 = load ptr, ptr %13, align 8, !tbaa !53
  %39 = call ptr @_Py_CheckFunctionResult(ptr noundef %36, ptr noundef %37, ptr noundef %38, ptr noundef null)
  store ptr %39, ptr %6, align 8
  store i32 1, ptr %15, align 4
  br label %40

40:                                               ; preds = %29, %20
  call void @llvm.lifetime.end.p0(i64 8, ptr %13) #8
  call void @llvm.lifetime.end.p0(i64 8, ptr %12) #8
  %41 = load ptr, ptr %6, align 8
  ret ptr %41
}

; Function Attrs: nounwind uwtable
define internal i32 @call_one_instrument(ptr noundef %0, ptr noundef %1, ptr noundef %2, i64 noundef %3, i8 noundef signext %4, i32 noundef %5) #0 {
  %7 = alloca i32, align 4
  %8 = alloca ptr, align 8
  %9 = alloca ptr, align 8
  %10 = alloca ptr, align 8
  %11 = alloca i64, align 8
  %12 = alloca i8, align 1
  %13 = alloca i32, align 4
  %14 = alloca ptr, align 8
  %15 = alloca i32, align 4
  %16 = alloca i32, align 4
  %17 = alloca ptr, align 8
  store ptr %0, ptr %8, align 8, !tbaa !55
  store ptr %1, ptr %9, align 8, !tbaa !39
  store ptr %2, ptr %10, align 8, !tbaa !44
  store i64 %3, ptr %11, align 8, !tbaa !43
  store i8 %4, ptr %12, align 1, !tbaa !11
  store i32 %5, ptr %13, align 4, !tbaa !9
  call void @llvm.lifetime.start.p0(i64 8, ptr %14) #8
  %18 = load ptr, ptr %8, align 8, !tbaa !55
  %19 = getelementptr inbounds nuw %struct._is, ptr %18, i32 0, i32 67
  %20 = load i8, ptr %12, align 1, !tbaa !11
  %21 = sext i8 %20 to i64
  %22 = getelementptr [8 x [19 x ptr]], ptr %19, i64 0, i64 %21
  %23 = load i32, ptr %13, align 4, !tbaa !9
  %24 = sext i32 %23 to i64
  %25 = getelementptr [19 x ptr], ptr %22, i64 0, i64 %24
  %26 = load ptr, ptr %25, align 8, !tbaa !53
  store ptr %26, ptr %14, align 8, !tbaa !53
  %27 = load ptr, ptr %14, align 8, !tbaa !53
  %28 = icmp eq ptr %27, null
  br i1 %28, label %29, label %30

29:                                               ; preds = %6
  store i32 0, ptr %7, align 4
  store i32 1, ptr %15, align 4
  br label %62

30:                                               ; preds = %6
  call void @llvm.lifetime.start.p0(i64 4, ptr %16) #8
  %31 = load ptr, ptr %9, align 8, !tbaa !39
  %32 = getelementptr inbounds nuw %struct._ts, ptr %31, i32 0, i32 12
  %33 = load i32, ptr %32, align 8, !tbaa !70
  store i32 %33, ptr %16, align 4, !tbaa !9
  %34 = load i32, ptr %13, align 4, !tbaa !9
  %35 = load ptr, ptr %9, align 8, !tbaa !39
  %36 = getelementptr inbounds nuw %struct._ts, ptr %35, i32 0, i32 12
  store i32 %34, ptr %36, align 8, !tbaa !70
  %37 = load ptr, ptr %9, align 8, !tbaa !39
  %38 = getelementptr inbounds nuw %struct._ts, ptr %37, i32 0, i32 11
  %39 = load i32, ptr %38, align 4, !tbaa !46
  %40 = add i32 %39, 1
  store i32 %40, ptr %38, align 4, !tbaa !46
  call void @llvm.lifetime.start.p0(i64 8, ptr %17) #8
  %41 = load ptr, ptr %9, align 8, !tbaa !39
  %42 = load ptr, ptr %14, align 8, !tbaa !53
  %43 = load ptr, ptr %10, align 8, !tbaa !44
  %44 = load i64, ptr %11, align 8, !tbaa !43
  %45 = call ptr @_PyObject_VectorcallTstate(ptr noundef %41, ptr noundef %42, ptr noundef %43, i64 noundef %44, ptr noundef null)
  store ptr %45, ptr %17, align 8, !tbaa !53
  %46 = load ptr, ptr %9, align 8, !tbaa !39
  %47 = getelementptr inbounds nuw %struct._ts, ptr %46, i32 0, i32 11
  %48 = load i32, ptr %47, align 4, !tbaa !46
  %49 = add i32 %48, -1
  store i32 %49, ptr %47, align 4, !tbaa !46
  %50 = load i32, ptr %16, align 4, !tbaa !9
  %51 = load ptr, ptr %9, align 8, !tbaa !39
  %52 = getelementptr inbounds nuw %struct._ts, ptr %51, i32 0, i32 12
  store i32 %50, ptr %52, align 8, !tbaa !70
  %53 = load ptr, ptr %17, align 8, !tbaa !53
  %54 = icmp eq ptr %53, null
  br i1 %54, label %55, label %56

55:                                               ; preds = %30
  store i32 -1, ptr %7, align 4
  store i32 1, ptr %15, align 4
  br label %61

56:                                               ; preds = %30
  %57 = load ptr, ptr %17, align 8, !tbaa !53
  call void @Py_DECREF(ptr noundef %57)
  %58 = load ptr, ptr %17, align 8, !tbaa !53
  %59 = icmp eq ptr %58, @_PyInstrumentation_DISABLE
  %60 = zext i1 %59 to i32
  store i32 %60, ptr %7, align 4
  store i32 1, ptr %15, align 4
  br label %61

61:                                               ; preds = %56, %55
  call void @llvm.lifetime.end.p0(i64 8, ptr %17) #8
  call void @llvm.lifetime.end.p0(i64 4, ptr %16) #8
  br label %62

62:                                               ; preds = %61, %29
  call void @llvm.lifetime.end.p0(i64 8, ptr %14) #8
  %63 = load i32, ptr %7, align 4
  ret i32 %63
}