; Function Attrs: nounwind uwtable
define internal fastcc range(i32 -1, 2) i32 @call_one_instrument(ptr noundef readonly captures(none) %0, ptr noundef %1, ptr noundef %2, i64 noundef range(i64 -9223372036854775808, -9223372036854775800) %3, i8 noundef signext %4, i32 noundef %5) unnamed_addr #2 {
  %7 = getelementptr inbounds nuw i8, ptr %0, i64 223048
  %8 = sext i8 %4 to i64
  %9 = sext i32 %5 to i64
  %10 = getelementptr [8 x [19 x ptr]], ptr %7, i64 0, i64 %8, i64 %9
  %11 = load ptr, ptr %10, align 8, !tbaa !46
  %12 = icmp eq ptr %11, null
  br i1 %12, label %42, label %13

13:                                               ; preds = %6
  %14 = getelementptr inbounds nuw i8, ptr %1, i64 64
  %15 = load i32, ptr %14, align 8, !tbaa !62
  store i32 %5, ptr %14, align 8, !tbaa !62
  %16 = getelementptr inbounds nuw i8, ptr %1, i64 60
  %17 = load i32, ptr %16, align 4, !tbaa !36
  %18 = add i32 %17, 1
  store i32 %18, ptr %16, align 4, !tbaa !36
  %19 = getelementptr i8, ptr %11, i64 8
  %.val.i.i = load ptr, ptr %19, align 8, !tbaa !66
  %20 = getelementptr i8, ptr %.val.i.i, i64 168
  %.val6.i.i = load i64, ptr %20, align 8, !tbaa !67
  %21 = and i64 %.val6.i.i, 2048
  %.not.i.i = icmp eq i64 %21, 0
  br i1 %.not.i.i, label %_PyVectorcall_FunctionInline.exit.thread.i, label %_PyVectorcall_FunctionInline.exit.i

_PyVectorcall_FunctionInline.exit.i:              ; preds = %13
  %22 = getelementptr inbounds nuw i8, ptr %.val.i.i, i64 56
  %23 = load i64, ptr %22, align 8, !tbaa !72
  %24 = getelementptr i8, ptr %11, i64 %23
  %.0.copyload.i.i = load ptr, ptr %24, align 1
  %25 = icmp eq ptr %.0.copyload.i.i, null
  br i1 %25, label %_PyVectorcall_FunctionInline.exit.thread.i, label %28

_PyVectorcall_FunctionInline.exit.thread.i:       ; preds = %_PyVectorcall_FunctionInline.exit.i, %13
  %26 = and i64 %3, 7
  %27 = tail call ptr @_PyObject_MakeTpCall(ptr noundef nonnull %1, ptr noundef nonnull %11, ptr noundef %2, i64 noundef %26, ptr noundef null) #11
  br label %_PyObject_VectorcallTstate.exit

28:                                               ; preds = %_PyVectorcall_FunctionInline.exit.i
  %29 = tail call ptr %.0.copyload.i.i(ptr noundef nonnull %11, ptr noundef %2, i64 noundef range(i64 -9223372036854775808, -9223372036854775800) %3, ptr noundef null) #11
  %30 = tail call ptr @_Py_CheckFunctionResult(ptr noundef nonnull %1, ptr noundef nonnull %11, ptr noundef %29, ptr noundef null) #11
  br label %_PyObject_VectorcallTstate.exit

_PyObject_VectorcallTstate.exit:                  ; preds = %_PyVectorcall_FunctionInline.exit.thread.i, %28
  %.0.i = phi ptr [ %27, %_PyVectorcall_FunctionInline.exit.thread.i ], [ %30, %28 ]
  %31 = load i32, ptr %16, align 4, !tbaa !36
  %32 = add i32 %31, -1
  store i32 %32, ptr %16, align 4, !tbaa !36
  store i32 %15, ptr %14, align 8, !tbaa !62
  %33 = icmp eq ptr %.0.i, null
  br i1 %33, label %42, label %34

34:                                               ; preds = %_PyObject_VectorcallTstate.exit
  %35 = load i32, ptr %.0.i, align 8, !tbaa !33
  %.not.i = icmp sgt i32 %35, -1
  br i1 %.not.i, label %36, label %Py_DECREF.exit

36:                                               ; preds = %34
  %37 = add nsw i32 %35, -1
  store i32 %37, ptr %.0.i, align 8, !tbaa !33
  %38 = icmp eq i32 %37, 0
  br i1 %38, label %39, label %Py_DECREF.exit

39:                                               ; preds = %36
  tail call void @_Py_Dealloc(ptr noundef nonnull %.0.i) #11
  br label %Py_DECREF.exit

Py_DECREF.exit:                                   ; preds = %34, %36, %39
  %40 = icmp eq ptr %.0.i, @_PyInstrumentation_DISABLE
  %41 = zext i1 %40 to i32
  br label %42

42:                                               ; preds = %Py_DECREF.exit, %_PyObject_VectorcallTstate.exit, %6
  %.0 = phi i32 [ 0, %6 ], [ %41, %Py_DECREF.exit ], [ -1, %_PyObject_VectorcallTstate.exit ]
  ret i32 %.0
}